target datalayout = "e-m:e-p270:32:32-p271:32:32-p272:64:64-i64:64-i128:128-f80:128-n8:16:32:64-S128"
target triple = "x86_64-pc-linux-gnu"

%struct.HeapTupleData = type { i32, %struct.ItemPointerData, i32, ptr }
%struct.ItemPointerData = type { %struct.BlockIdData, i16 }
%struct.BlockIdData = type { i16, i16 }
%struct.HeapTupleHeaderData = type { %union.anon, %struct.ItemPointerData, i16, i16, i8, [0 x i8] }
%union.anon = type { %struct.HeapTupleFields }
%struct.HeapTupleFields = type { i32, i32, %union.anon.0 }
%union.anon.0 = type { i32 }
%struct.nameData = type { [64 x i8] }
%struct.FormData_pg_type = type { i32, %struct.nameData, i32, i32, i16, i8, i8, i8, i8, i8, i8, i32, i32, i32, i32, i32, i32, i32, i32, i32, i32, i32, i8, i8, i8, i32, i32, i32, i32 }

@.str.1 = private unnamed_addr constant [12 x i8] c"lsyscache.c\00", align 1
@.str.13 = private unnamed_addr constant [32 x i8] c"cache lookup failed for type %u\00", align 1
@__func__.get_type_category_preferred = private unnamed_addr constant [28 x i8] c"get_type_category_preferred\00", align 1

; Function Attrs: inlinehint nounwind uwtable
define internal ptr @GETSTRUCT(ptr noundef %0) #2 {
  %2 = alloca ptr, align 8
  store ptr %0, ptr %2, align 8
  %3 = load ptr, ptr %2, align 8
  %4 = getelementptr inbounds nuw %struct.HeapTupleData, ptr %3, i32 0, i32 3
  %5 = load ptr, ptr %4, align 8
  %6 = load ptr, ptr %2, align 8
  %7 = getelementptr inbounds nuw %struct.HeapTupleData, ptr %6, i32 0, i32 3
  %8 = load ptr, ptr %7, align 8
  %9 = getelementptr inbounds nuw %struct.HeapTupleHeaderData, ptr %8, i32 0, i32 4
  %10 = load i8, ptr %9, align 2
  %11 = zext i8 %10 to i32
  %12 = sext i32 %11 to i64
  %13 = getelementptr inbounds i8, ptr %5, i64 %12
  ret ptr %13
}

; Function Attrs: inlinehint nounwind uwtable
define internal i64 @ObjectIdGetDatum(i32 noundef %0) #2 {
  %2 = alloca i32, align 4
  store i32 %0, ptr %2, align 4
  %3 = load i32, ptr %2, align 4
  %4 = zext i32 %3 to i64
  ret i64 %4
}

; Function Attrs: nounwind uwtable
define dso_local void @get_type_category_preferred(i32 noundef %0, ptr noundef %1, ptr noundef %2) #0 {
  %4 = alloca i32, align 4
  %5 = alloca ptr, align 8
  %6 = alloca ptr, align 8
  %7 = alloca ptr, align 8
  %8 = alloca ptr, align 8
  store i32 %0, ptr %4, align 4
  store ptr %1, ptr %5, align 8
  store ptr %2, ptr %6, align 8
  call void @llvm.lifetime.start.p0(i64 8, ptr %7) #7
  call void @llvm.lifetime.start.p0(i64 8, ptr %8) #7
  %9 = load i32, ptr %4, align 4
  %10 = call i64 @ObjectIdGetDatum(i32 noundef %9)
  %11 = call ptr @SearchSysCache1(i32 noundef 82, i64 noundef %10)
  store ptr %11, ptr %7, align 8
  %12 = load ptr, ptr %7, align 8
  %13 = icmp ne ptr %12, null
  br i1 %13, label %26, label %14

14:                                               ; preds = %3
  br label %15

15:                                               ; preds = %14
  br i1 true, label %16, label %18

16:                                               ; preds = %15
  %17 = call zeroext i1 @errstart_cold(i32 noundef 21, ptr noundef null) #8
  br i1 %17, label %20, label %23

18:                                               ; preds = %15
  %19 = call zeroext i1 @errstart(i32 noundef 21, ptr noundef null)
  br i1 %19, label %20, label %23

20:                                               ; preds = %18, %16
  %21 = load i32, ptr %4, align 4
  %22 = call i32 (ptr, ...) @errmsg_internal(ptr noundef @.str.13, i32 noundef %21)
  call void @errfinish(ptr noundef @.str.1, i32 noundef 2744, ptr noundef @__func__.get_type_category_preferred)
  br label %23

23:                                               ; preds = %20, %18, %16
  unreachable

24:                                               ; No predecessors!
  br label %25

25:                                               ; preds = %24
  br label %26

26:                                               ; preds = %25, %3
  %27 = load ptr, ptr %7, align 8
  %28 = call ptr @GETSTRUCT(ptr noundef %27)
  store ptr %28, ptr %8, align 8
  %29 = load ptr, ptr %8, align 8
  %30 = getelementptr inbounds nuw %struct.FormData_pg_type, ptr %29, i32 0, i32 7
  %31 = load i8, ptr %30, align 4
  %32 = load ptr, ptr %5, align 8
  store i8 %31, ptr %32, align 1
  %33 = load ptr, ptr %8, align 8
  %34 = getelementptr inbounds nuw %struct.FormData_pg_type, ptr %33, i32 0, i32 8
  %35 = load i8, ptr %34, align 1, !range !4, !noundef !5
  %36 = trunc i8 %35 to i1
  %37 = load ptr, ptr %6, align 8
  %38 = zext i1 %36 to i8
  store i8 %38, ptr %37, align 1
  %39 = load ptr, ptr %7, align 8
  call void @ReleaseSysCache(ptr noundef %39)
  call void @llvm.lifetime.end.p0(i64 8, ptr %8) #7
  call void @llvm.lifetime.end.p0(i64 8, ptr %7) #7
  ret void
}